target datalayout = "e-m:e-p270:32:32-p271:32:32-p272:64:64-i64:64-i128:128-f80:128-n8:16:32:64-S128"
target triple = "x86_64-pc-linux-gnu"

%struct.archive_write = type { %struct.archive, i32, i64, i64, ptr, i64, ptr, ptr, ptr, ptr, ptr, i32, i32, ptr, ptr, ptr, ptr, ptr, ptr, ptr, ptr, ptr, ptr, ptr, ptr, ptr, ptr }
%struct.archive = type { i32, i32, ptr, i32, ptr, i32, i32, ptr, %struct.archive_string, ptr, i32, i32, ptr, ptr, i64, i64, i64, i8, i64 }
%struct.archive_string = type { ptr, i64, i64 }
%struct.archive_write_filter = type { i64, ptr, ptr, ptr, ptr, ptr, ptr, ptr, ptr, ptr, ptr, i32, i32, i32, i32 }

; Function Attrs: nounwind uwtable
define dso_local ptr @__archive_write_allocate_filter(ptr noundef %0) #0 {
  %2 = alloca ptr, align 8
  %3 = alloca ptr, align 8
  %4 = alloca ptr, align 8
  %5 = alloca ptr, align 8
  %6 = alloca i32, align 4
  store ptr %0, ptr %3, align 8, !tbaa !26
  call void @llvm.lifetime.start.p0(i64 8, ptr %4) #9
  %7 = load ptr, ptr %3, align 8, !tbaa !26
  store ptr %7, ptr %4, align 8, !tbaa !4
  call void @llvm.lifetime.start.p0(i64 8, ptr %5) #9
  %8 = call noalias ptr @calloc(i64 noundef 1, i64 noundef 104) #10
  store ptr %8, ptr %5, align 8, !tbaa !33
  %9 = load ptr, ptr %5, align 8, !tbaa !33
  %10 = icmp eq ptr %9, null
  br i1 %10, label %11, label %12

11:                                               ; preds = %1
  store ptr null, ptr %2, align 8
  store i32 1, ptr %6, align 4
  br label %37

12:                                               ; preds = %1
  %13 = load ptr, ptr %3, align 8, !tbaa !26
  %14 = load ptr, ptr %5, align 8, !tbaa !33
  %15 = getelementptr inbounds nuw %struct.archive_write_filter, ptr %14, i32 0, i32 1
  store ptr %13, ptr %15, align 8, !tbaa !34
  %16 = load ptr, ptr %5, align 8, !tbaa !33
  %17 = getelementptr inbounds nuw %struct.archive_write_filter, ptr %16, i32 0, i32 14
  store i32 1, ptr %17, align 4, !tbaa !36
  %18 = load ptr, ptr %4, align 8, !tbaa !4
  %19 = getelementptr inbounds nuw %struct.archive_write, ptr %18, i32 0, i32 13
  %20 = load ptr, ptr %19, align 8, !tbaa !37
  %21 = icmp eq ptr %20, null
  br i1 %21, label %22, label %26

22:                                               ; preds = %12
  %23 = load ptr, ptr %5, align 8, !tbaa !33
  %24 = load ptr, ptr %4, align 8, !tbaa !4
  %25 = getelementptr inbounds nuw %struct.archive_write, ptr %24, i32 0, i32 13
  store ptr %23, ptr %25, align 8, !tbaa !37
  br label %32

26:                                               ; preds = %12
  %27 = load ptr, ptr %5, align 8, !tbaa !33
  %28 = load ptr, ptr %4, align 8, !tbaa !4
  %29 = getelementptr inbounds nuw %struct.archive_write, ptr %28, i32 0, i32 14
  %30 = load ptr, ptr %29, align 8, !tbaa !38
  %31 = getelementptr inbounds nuw %struct.archive_write_filter, ptr %30, i32 0, i32 2
  store ptr %27, ptr %31, align 8, !tbaa !39
  br label %32

32:                                               ; preds = %26, %22
  %33 = load ptr, ptr %5, align 8, !tbaa !33
  %34 = load ptr, ptr %4, align 8, !tbaa !4
  %35 = getelementptr inbounds nuw %struct.archive_write, ptr %34, i32 0, i32 14
  store ptr %33, ptr %35, align 8, !tbaa !38
  %36 = load ptr, ptr %5, align 8, !tbaa !33
  store ptr %36, ptr %2, align 8
  store i32 1, ptr %6, align 4
  br label %37

37:                                               ; preds = %32, %11
  call void @llvm.lifetime.end.p0(i64 8, ptr %5) #9
  call void @llvm.lifetime.end.p0(i64 8, ptr %4) #9
  %38 = load ptr, ptr %2, align 8
  ret ptr %38
}