; Function Attrs: mustprogress nofree nounwind willreturn memory(write, argmem: readwrite, inaccessiblemem: readwrite) uwtable
define dso_local noundef ptr @__archive_write_allocate_filter(ptr noundef %0) local_unnamed_addr #5 {
  %2 = tail call noalias dereferenceable_or_null(104) ptr @calloc(i64 noundef 1, i64 noundef 104) #12
  %3 = icmp eq ptr %2, null
  br i1 %3, label %17, label %4

4:                                                ; preds = %1
  %5 = getelementptr inbounds nuw i8, ptr %2, i64 8
  store ptr %0, ptr %5, align 8, !tbaa !26
  %6 = getelementptr inbounds nuw i8, ptr %2, i64 100
  store i32 1, ptr %6, align 4, !tbaa !29
  %7 = getelementptr inbounds nuw i8, ptr %0, i64 232
  %8 = load ptr, ptr %7, align 8, !tbaa !30
  %9 = icmp eq ptr %8, null
  br i1 %9, label %10, label %11

10:                                               ; preds = %4
  store ptr %2, ptr %7, align 8, !tbaa !30
  br label %15

11:                                               ; preds = %4
  %12 = getelementptr inbounds nuw i8, ptr %0, i64 240
  %13 = load ptr, ptr %12, align 8, !tbaa !31
  %14 = getelementptr inbounds nuw i8, ptr %13, i64 16
  store ptr %2, ptr %14, align 8, !tbaa !32
  br label %15

15:                                               ; preds = %11, %10
  %16 = getelementptr inbounds nuw i8, ptr %0, i64 240
  store ptr %2, ptr %16, align 8, !tbaa !31
  br label %17

17:                                               ; preds = %1, %15
  ret ptr %2
}